; Function Attrs: nounwind uwtable
define ptr @l_Lean_Meta_mkHCongrWithArity_withNewEqs_loop___rarg___lambda__2___boxed(ptr noundef %0, ptr noundef %1, ptr noundef %2, ptr noundef %3, ptr noundef %4, ptr noundef %5, ptr noundef %6, ptr noundef %7, ptr noundef %8, ptr noundef %9, ptr noundef %10, ptr noundef %11) #1 {
  %13 = tail call ptr @lean_array_push(ptr noundef %0, ptr noundef %6) #7
  %14 = tail call ptr @lean_array_push(ptr noundef %1, ptr noundef nonnull inttoptr (i64 5 to ptr)) #7
  %15 = tail call ptr @l_Lean_Meta_mkHCongrWithArity_withNewEqs_loop___rarg(ptr noundef %2, ptr noundef %3, ptr noundef %4, ptr noundef %5, ptr noundef %13, ptr noundef %14, ptr noundef %7, ptr noundef %8, ptr noundef %9, ptr noundef %10, ptr noundef %11)
  %16 = ptrtoint ptr %5 to i64
  %17 = and i64 %16, 1
  %.not = icmp eq i64 %17, 0
  br i1 %.not, label %18, label %lean_dec.exit

18:                                               ; preds = %12
  %19 = load i32, ptr %5, align 4, !tbaa !4
  %20 = icmp sgt i32 %19, 1
  br i1 %20, label %21, label %23, !prof !9

21:                                               ; preds = %18
  %22 = add nsw i32 %19, -1
  store i32 %22, ptr %5, align 4, !tbaa !4
  br label %lean_dec.exit

23:                                               ; preds = %18
  %.not.i = icmp eq i32 %19, 0
  br i1 %.not.i, label %lean_dec.exit, label %24

24:                                               ; preds = %23
  tail call void @lean_dec_ref_cold(ptr noundef nonnull %5) #7
  br label %lean_dec.exit

lean_dec.exit:                                    ; preds = %24, %23, %21, %12
  ret ptr %15
}